target datalayout = "e-m:e-p270:32:32-p271:32:32-p272:64:64-i64:64-i128:128-f80:128-n8:16:32:64-S128"
target triple = "x86_64-pc-linux-gnu"

%struct.GVJ_s = type { ptr, ptr, ptr, ptr, ptr, ptr, i32, ptr, ptr, ptr, ptr, i64, i64, ptr, i32, %struct.gvplugin_active_render_s, %struct.gvplugin_active_device_s, %struct.gvplugin_active_loadimage_t, ptr, %struct.pointf_s, i8, ptr, i32, ptr, i8, ptr, i32, i32, i32, %struct.point, %struct.point, %struct.point, %struct.point, %struct.point, i32, %struct.boxf, %struct.pointf_s, %struct.boxf, %struct.boxf, %struct.pointf_s, %struct.pointf_s, double, i32, %struct.pointf_s, %struct.boxf, %struct.pointf_s, %struct.pointf_s, i32, i32, %struct.box, %struct.box, %struct.pointf_s, %struct.pointf_s, %struct.pointf_s, i8, i8, i8, i8, i8, i8, %struct.pointf_s, %struct.pointf_s, ptr, ptr, ptr, ptr, ptr, ptr, i64, ptr }
%struct.gvplugin_active_render_s = type { ptr, i32, ptr, ptr }
%struct.gvplugin_active_device_s = type { ptr, i32, ptr, ptr }
%struct.gvplugin_active_loadimage_t = type { ptr, i32, ptr }
%struct.point = type { i32, i32 }
%struct.boxf = type { %struct.pointf_s, %struct.pointf_s }
%struct.box = type { %struct.point, %struct.point }
%struct.pointf_s = type { double, double }
%struct.color_s = type { %union.anon, i32 }
%union.anon = type { [4 x double] }
%struct.gvrender_engine_s = type { ptr, ptr, ptr, ptr, ptr, ptr, ptr, ptr, ptr, ptr, ptr, ptr, ptr, ptr, ptr, ptr, ptr, ptr, ptr, ptr, ptr, ptr, ptr, ptr, ptr, ptr, ptr, ptr, ptr, ptr }
%struct.obj_state_s = type { ptr, i32, %union.anon.0, i32, %struct.color_s, %struct.color_s, %struct.color_s, i32, double, i32, i32, double, ptr, double, double, double, ptr, ptr, ptr, ptr, ptr, ptr, ptr, ptr, ptr, ptr, ptr, ptr, ptr, ptr, ptr, ptr, ptr, i16, i32, i64, ptr, i64, ptr, ptr, i32, ptr, i32, ptr }
%union.anon.0 = type { ptr }

; Function Attrs: nounwind uwtable
define void @gvrender_set_fillcolor(ptr noundef %0, ptr noundef %1) #0 {
  %3 = alloca ptr, align 8
  %4 = alloca ptr, align 8
  %5 = alloca ptr, align 8
  %6 = alloca ptr, align 8
  %7 = alloca ptr, align 8
  store ptr %0, ptr %3, align 8, !tbaa !3
  store ptr %1, ptr %4, align 8, !tbaa !8
  call void @llvm.lifetime.start.p0(i64 8, ptr %5) #15
  %8 = load ptr, ptr %3, align 8, !tbaa !3
  %9 = getelementptr inbounds nuw %struct.GVJ_s, ptr %8, i32 0, i32 15
  %10 = getelementptr inbounds nuw %struct.gvplugin_active_render_s, ptr %9, i32 0, i32 0
  %11 = load ptr, ptr %10, align 8, !tbaa !51
  store ptr %11, ptr %5, align 8, !tbaa !58
  call void @llvm.lifetime.start.p0(i64 8, ptr %6) #15
  %12 = load ptr, ptr %3, align 8, !tbaa !3
  %13 = getelementptr inbounds nuw %struct.GVJ_s, ptr %12, i32 0, i32 4
  %14 = load ptr, ptr %13, align 8, !tbaa !116
  %15 = getelementptr inbounds nuw %struct.obj_state_s, ptr %14, i32 0, i32 5
  store ptr %15, ptr %6, align 8, !tbaa !121
  call void @llvm.lifetime.start.p0(i64 8, ptr %7) #15
  store ptr null, ptr %7, align 8, !tbaa !8
  %16 = load ptr, ptr %4, align 8, !tbaa !8
  %17 = call ptr @strchr(ptr noundef %16, i32 noundef 58) #16
  store ptr %17, ptr %7, align 8, !tbaa !8
  %18 = icmp ne ptr %17, null
  br i1 %18, label %19, label %21

19:                                               ; preds = %2
  %20 = load ptr, ptr %7, align 8, !tbaa !8
  store i8 0, ptr %20, align 1, !tbaa !115
  br label %21

21:                                               ; preds = %19, %2
  %22 = load ptr, ptr %5, align 8, !tbaa !58
  %23 = icmp ne ptr %22, null
  br i1 %23, label %24, label %42

24:                                               ; preds = %21
  %25 = load ptr, ptr %3, align 8, !tbaa !3
  %26 = getelementptr inbounds nuw %struct.GVJ_s, ptr %25, i32 0, i32 15
  %27 = getelementptr inbounds nuw %struct.gvplugin_active_render_s, ptr %26, i32 0, i32 2
  %28 = load ptr, ptr %27, align 8, !tbaa !52
  %29 = load ptr, ptr %4, align 8, !tbaa !8
  %30 = load ptr, ptr %6, align 8, !tbaa !121
  call void @gvrender_resolve_color(ptr noundef %28, ptr noundef %29, ptr noundef %30)
  %31 = load ptr, ptr %5, align 8, !tbaa !58
  %32 = getelementptr inbounds nuw %struct.gvrender_engine_s, ptr %31, i32 0, i32 23
  %33 = load ptr, ptr %32, align 8, !tbaa !123
  %34 = icmp ne ptr %33, null
  br i1 %34, label %35, label %41

35:                                               ; preds = %24
  %36 = load ptr, ptr %5, align 8, !tbaa !58
  %37 = getelementptr inbounds nuw %struct.gvrender_engine_s, ptr %36, i32 0, i32 23
  %38 = load ptr, ptr %37, align 8, !tbaa !123
  %39 = load ptr, ptr %3, align 8, !tbaa !3
  %40 = load ptr, ptr %6, align 8, !tbaa !121
  call void %38(ptr noundef %39, ptr noundef %40)
  br label %41

41:                                               ; preds = %35, %24
  br label %42

42:                                               ; preds = %41, %21
  %43 = load ptr, ptr %7, align 8, !tbaa !8
  %44 = icmp ne ptr %43, null
  br i1 %44, label %45, label %47

45:                                               ; preds = %42
  %46 = load ptr, ptr %7, align 8, !tbaa !8
  store i8 58, ptr %46, align 1, !tbaa !115
  br label %47

47:                                               ; preds = %45, %42
  call void @llvm.lifetime.end.p0(i64 8, ptr %7) #15
  call void @llvm.lifetime.end.p0(i64 8, ptr %6) #15
  call void @llvm.lifetime.end.p0(i64 8, ptr %5) #15
  ret void
}