; Function Attrs: nounwind uwtable
define void @gvrender_set_fillcolor(ptr noundef %0, ptr noundef %1) local_unnamed_addr #0 {
  %3 = getelementptr inbounds nuw i8, ptr %0, i64 120
  %4 = load ptr, ptr %3, align 8, !tbaa !47
  %5 = getelementptr inbounds nuw i8, ptr %0, i64 32
  %6 = load ptr, ptr %5, align 8, !tbaa !107
  %7 = getelementptr inbounds nuw i8, ptr %6, i64 72
  %8 = tail call ptr @strchr(ptr noundef nonnull dereferenceable(1) %1, i32 noundef 58) #23
  %.not = icmp eq ptr %8, null
  br i1 %.not, label %10, label %9

9:                                                ; preds = %2
  store i8 0, ptr %8, align 1, !tbaa !106
  br label %10

10:                                               ; preds = %9, %2
  %.not16 = icmp eq ptr %4, null
  br i1 %.not16, label %17, label %11

11:                                               ; preds = %10
  %12 = getelementptr inbounds nuw i8, ptr %0, i64 136
  %13 = load ptr, ptr %12, align 8, !tbaa !48
  tail call fastcc void @gvrender_resolve_color(ptr noundef %13, ptr noundef nonnull %1, ptr noundef nonnull %7)
  %14 = getelementptr inbounds nuw i8, ptr %4, i64 184
  %15 = load ptr, ptr %14, align 8, !tbaa !113
  %.not17 = icmp eq ptr %15, null
  br i1 %.not17, label %17, label %16

16:                                               ; preds = %11
  tail call void %15(ptr noundef nonnull %0, ptr noundef nonnull %7) #22
  br label %17

17:                                               ; preds = %11, %16, %10
  br i1 %.not, label %19, label %18

18:                                               ; preds = %17
  store i8 58, ptr %8, align 1, !tbaa !106
  br label %19

19:                                               ; preds = %18, %17
  ret void
}